target datalayout = "e-m:e-p270:32:32-p271:32:32-p272:64:64-i64:64-i128:128-f80:128-n8:16:32:64-S128"
target triple = "x86_64-pc-linux-gnu"

%struct.tvb_composite = type { %struct.tvbuff, %struct.tvb_comp_t }
%struct.tvbuff = type { ptr, ptr, i8, i32, ptr, ptr, i32, i32, i32, i32 }
%struct.tvb_comp_t = type { ptr, ptr, ptr, i32 }
%struct._GQueue = type { ptr, ptr, i32 }
%struct._GList = type { ptr, ptr, ptr }

@.str = private unnamed_addr constant [29 x i8] c"%s:%u: failed assertion \22%s\22\00", align 1
@.str.1 = private unnamed_addr constant [24 x i8] c"epan/tvbuff_composite.c\00", align 1
@.str.8 = private unnamed_addr constant [45 x i8] c"abs_offset == tvb->length && abs_length == 0\00", align 1
@.str.10 = private unnamed_addr constant [16 x i8] c"!tvb->real_data\00", align 1
@.str.11 = private unnamed_addr constant [18 x i8] c"member_length > 0\00", align 1
@.str.12 = private unnamed_addr constant [28 x i8] c"member_length <= abs_length\00", align 1
@.str.13 = private unnamed_addr constant [33 x i8] c"composite->recursion_depth < 500\00", align 1

; Function Attrs: null_pointer_is_valid sspstrong uwtable
define internal ptr @composite_memcpy(ptr noundef %0, ptr noundef %1, i32 noundef %2, i32 noundef %3) #0 {
  %5 = alloca ptr, align 8
  %6 = alloca ptr, align 8
  %7 = alloca ptr, align 8
  %8 = alloca i32, align 4
  %9 = alloca i32, align 4
  %10 = alloca ptr, align 8
  %11 = alloca ptr, align 8
  %12 = alloca i32, align 4
  %13 = alloca ptr, align 8
  %14 = alloca ptr, align 8
  %15 = alloca i32, align 4
  %16 = alloca i32, align 4
  %17 = alloca ptr, align 8
  %18 = alloca i32, align 4
  store ptr %0, ptr %6, align 8
  store ptr %1, ptr %7, align 8
  store i32 %2, ptr %8, align 4
  store i32 %3, ptr %9, align 4
  call void @llvm.lifetime.start.p0(i64 8, ptr %10) #8
  %19 = load ptr, ptr %6, align 8
  store ptr %19, ptr %10, align 8
  call void @llvm.lifetime.start.p0(i64 8, ptr %11) #8
  %20 = load ptr, ptr %7, align 8
  store ptr %20, ptr %11, align 8
  call void @llvm.lifetime.start.p0(i64 4, ptr %12) #8
  call void @llvm.lifetime.start.p0(i64 8, ptr %13) #8
  call void @llvm.lifetime.start.p0(i64 8, ptr %14) #8
  store ptr null, ptr %14, align 8
  call void @llvm.lifetime.start.p0(i64 4, ptr %15) #8
  call void @llvm.lifetime.start.p0(i64 4, ptr %16) #8
  %21 = load ptr, ptr %10, align 8
  %22 = getelementptr inbounds nuw %struct.tvb_composite, ptr %21, i32 0, i32 1
  store ptr %22, ptr %13, align 8
  call void @llvm.lifetime.start.p0(i64 8, ptr %17) #8
  %23 = load ptr, ptr %13, align 8
  %24 = getelementptr inbounds nuw %struct.tvb_comp_t, ptr %23, i32 0, i32 0
  %25 = load ptr, ptr %24, align 8
  %26 = getelementptr inbounds nuw %struct._GQueue, ptr %25, i32 0, i32 0
  %27 = load ptr, ptr %26, align 8
  store ptr %27, ptr %17, align 8
  store i32 0, ptr %12, align 4
  br label %28

28:                                               ; preds = %50, %4
  %29 = load i32, ptr %12, align 4
  %30 = load ptr, ptr %13, align 8
  %31 = getelementptr inbounds nuw %struct.tvb_comp_t, ptr %30, i32 0, i32 0
  %32 = load ptr, ptr %31, align 8
  %33 = call i32 @g_queue_get_length(ptr noundef %32)
  %34 = icmp ult i32 %29, %33
  br i1 %34, label %35, label %56

35:                                               ; preds = %28
  %36 = load i32, ptr %8, align 4
  %37 = load ptr, ptr %13, align 8
  %38 = getelementptr inbounds nuw %struct.tvb_comp_t, ptr %37, i32 0, i32 2
  %39 = load ptr, ptr %38, align 8
  %40 = load i32, ptr %12, align 4
  %41 = zext i32 %40 to i64
  %42 = getelementptr i32, ptr %39, i64 %41
  %43 = load i32, ptr %42, align 4
  %44 = icmp ule i32 %36, %43
  br i1 %44, label %45, label %49

45:                                               ; preds = %35
  %46 = load ptr, ptr %17, align 8
  %47 = getelementptr inbounds nuw %struct._GList, ptr %46, i32 0, i32 0
  %48 = load ptr, ptr %47, align 8
  store ptr %48, ptr %14, align 8
  br label %56

49:                                               ; preds = %35
  br label %50

50:                                               ; preds = %49
  %51 = load i32, ptr %12, align 4
  %52 = add i32 %51, 1
  store i32 %52, ptr %12, align 4
  %53 = load ptr, ptr %17, align 8
  %54 = getelementptr inbounds nuw %struct._GList, ptr %53, i32 0, i32 1
  %55 = load ptr, ptr %54, align 8
  store ptr %55, ptr %17, align 8
  br label %28, !llvm.loop !11

56:                                               ; preds = %45, %28
  %57 = load ptr, ptr %14, align 8
  %58 = icmp ne ptr %57, null
  br i1 %58, label %73, label %59

59:                                               ; preds = %56
  %60 = load i32, ptr %8, align 4
  %61 = load ptr, ptr %6, align 8
  %62 = getelementptr inbounds nuw %struct.tvbuff, ptr %61, i32 0, i32 6
  %63 = load i32, ptr %62, align 8
  %64 = icmp eq i32 %60, %63
  br i1 %64, label %65, label %69

65:                                               ; preds = %59
  %66 = load i32, ptr %9, align 4
  %67 = icmp eq i32 %66, 0
  br i1 %67, label %68, label %69

68:                                               ; preds = %65
  br label %71

69:                                               ; preds = %65, %59
  call void (ptr, ...) @proto_report_dissector_bug(ptr noundef @.str, ptr noundef @.str.1, i32 noundef 135, ptr noundef @.str.8) #9
  unreachable

70:                                               ; No predecessors!
  br label %71

71:                                               ; preds = %70, %68
  %72 = load ptr, ptr %11, align 8
  store ptr %72, ptr %5, align 8
  store i32 1, ptr %18, align 4
  br label %160

73:                                               ; preds = %56
  %74 = load i32, ptr %8, align 4
  %75 = load ptr, ptr %13, align 8
  %76 = getelementptr inbounds nuw %struct.tvb_comp_t, ptr %75, i32 0, i32 1
  %77 = load ptr, ptr %76, align 8
  %78 = load i32, ptr %12, align 4
  %79 = zext i32 %78 to i64
  %80 = getelementptr i32, ptr %77, i64 %79
  %81 = load i32, ptr %80, align 4
  %82 = sub i32 %74, %81
  store i32 %82, ptr %15, align 4
  %83 = load ptr, ptr %14, align 8
  %84 = load i32, ptr %15, align 4
  %85 = load i32, ptr %9, align 4
  %86 = call zeroext i1 @tvb_bytes_exist(ptr noundef %83, i32 noundef %84, i32 noundef %85)
  br i1 %86, label %87, label %102

87:                                               ; preds = %73
  %88 = load ptr, ptr %6, align 8
  %89 = getelementptr inbounds nuw %struct.tvbuff, ptr %88, i32 0, i32 5
  %90 = load ptr, ptr %89, align 8
  %91 = icmp ne ptr %90, null
  br i1 %91, label %93, label %92

92:                                               ; preds = %87
  br label %95

93:                                               ; preds = %87
  call void (ptr, ...) @proto_report_dissector_bug(ptr noundef @.str, ptr noundef @.str.1, i32 noundef 142, ptr noundef @.str.10) #9
  unreachable

94:                                               ; No predecessors!
  br label %95

95:                                               ; preds = %94, %92
  %96 = load ptr, ptr %14, align 8
  %97 = load ptr, ptr %11, align 8
  %98 = load i32, ptr %15, align 4
  %99 = load i32, ptr %9, align 4
  %100 = zext i32 %99 to i64
  %101 = call ptr @tvb_memcpy(ptr noundef %96, ptr noundef %97, i32 noundef %98, i64 noundef %100)
  store ptr %101, ptr %5, align 8
  store i32 1, ptr %18, align 4
  br label %160

102:                                              ; preds = %73
  %103 = load ptr, ptr %14, align 8
  %104 = load i32, ptr %15, align 4
  %105 = call i32 @tvb_captured_length_remaining(ptr noundef %103, i32 noundef %104)
  store i32 %105, ptr %16, align 4
  %106 = load i32, ptr %16, align 4
  %107 = icmp ugt i32 %106, 0
  br i1 %107, label %108, label %109

108:                                              ; preds = %102
  br label %111

109:                                              ; preds = %102
  call void (ptr, ...) @proto_report_dissector_bug(ptr noundef @.str, ptr noundef @.str.1, i32 noundef 154, ptr noundef @.str.11) #9
  unreachable

110:                                              ; No predecessors!
  br label %111

111:                                              ; preds = %110, %108
  %112 = load i32, ptr %16, align 4
  %113 = load i32, ptr %9, align 4
  %114 = icmp ule i32 %112, %113
  br i1 %114, label %115, label %116

115:                                              ; preds = %111
  br label %118

116:                                              ; preds = %111
  call void (ptr, ...) @proto_report_dissector_bug(ptr noundef @.str, ptr noundef @.str.1, i32 noundef 156, ptr noundef @.str.12) #9
  unreachable

117:                                              ; No predecessors!
  br label %118

118:                                              ; preds = %117, %115
  %119 = load ptr, ptr %14, align 8
  %120 = load ptr, ptr %11, align 8
  %121 = load i32, ptr %15, align 4
  %122 = load i32, ptr %16, align 4
  %123 = zext i32 %122 to i64
  %124 = call ptr @tvb_memcpy(ptr noundef %119, ptr noundef %120, i32 noundef %121, i64 noundef %123)
  %125 = load i32, ptr %16, align 4
  %126 = load i32, ptr %8, align 4
  %127 = add i32 %126, %125
  store i32 %127, ptr %8, align 4
  %128 = load i32, ptr %16, align 4
  %129 = load i32, ptr %9, align 4
  %130 = sub i32 %129, %128
  store i32 %130, ptr %9, align 4
  %131 = load i32, ptr %9, align 4
  %132 = icmp ugt i32 %131, 0
  br i1 %132, label %133, label %158

133:                                              ; preds = %118
  %134 = load ptr, ptr %13, align 8
  %135 = getelementptr inbounds nuw %struct.tvb_comp_t, ptr %134, i32 0, i32 3
  %136 = load i32, ptr %135, align 8
  %137 = add i32 %136, 1
  store i32 %137, ptr %135, align 8
  %138 = load ptr, ptr %13, align 8
  %139 = getelementptr inbounds nuw %struct.tvb_comp_t, ptr %138, i32 0, i32 3
  %140 = load i32, ptr %139, align 8
  %141 = icmp ult i32 %140, 500
  br i1 %141, label %142, label %143

142:                                              ; preds = %133
  br label %145

143:                                              ; preds = %133
  call void (ptr, ...) @proto_report_dissector_bug(ptr noundef @.str, ptr noundef @.str.1, i32 noundef 165, ptr noundef @.str.13) #9
  unreachable

144:                                              ; No predecessors!
  br label %145

145:                                              ; preds = %144, %142
  %146 = load ptr, ptr %6, align 8
  %147 = load ptr, ptr %11, align 8
  %148 = load i32, ptr %16, align 4
  %149 = zext i32 %148 to i64
  %150 = getelementptr i8, ptr %147, i64 %149
  %151 = load i32, ptr %8, align 4
  %152 = load i32, ptr %9, align 4
  %153 = call ptr @composite_memcpy(ptr noundef %146, ptr noundef %150, i32 noundef %151, i32 noundef %152)
  %154 = load ptr, ptr %13, align 8
  %155 = getelementptr inbounds nuw %struct.tvb_comp_t, ptr %154, i32 0, i32 3
  %156 = load i32, ptr %155, align 8
  %157 = add i32 %156, -1
  store i32 %157, ptr %155, align 8
  br label %158

158:                                              ; preds = %145, %118
  %159 = load ptr, ptr %11, align 8
  store ptr %159, ptr %5, align 8
  store i32 1, ptr %18, align 4
  br label %160

160:                                              ; preds = %158, %95, %71
  call void @llvm.lifetime.end.p0(i64 8, ptr %17) #8
  call void @llvm.lifetime.end.p0(i64 4, ptr %16) #8
  call void @llvm.lifetime.end.p0(i64 4, ptr %15) #8
  call void @llvm.lifetime.end.p0(i64 8, ptr %14) #8
  call void @llvm.lifetime.end.p0(i64 8, ptr %13) #8
  call void @llvm.lifetime.end.p0(i64 4, ptr %12) #8
  call void @llvm.lifetime.end.p0(i64 8, ptr %11) #8
  call void @llvm.lifetime.end.p0(i64 8, ptr %10) #8
  %161 = load ptr, ptr %5, align 8
  ret ptr %161
}