; Function Attrs: null_pointer_is_valid sspstrong uwtable
define internal ptr @composite_memcpy(ptr noundef captures(none) %0, ptr noundef %1, i32 noundef %2, i32 noundef %3) #0 {
  %5 = getelementptr inbounds nuw i8, ptr %0, i64 56
  %6 = load ptr, ptr %5, align 8
  %.067 = load ptr, ptr %6, align 8
  %7 = tail call i32 @g_queue_get_length(ptr noundef %6)
  %.not70 = icmp eq i32 %7, 0
  br i1 %.not70, label %.thread, label %.lr.ph

.lr.ph:                                           ; preds = %4
  %8 = getelementptr inbounds nuw i8, ptr %0, i64 72
  br label %9

9:                                                ; preds = %.lr.ph, %13
  %indvars.iv = phi i64 [ 0, %.lr.ph ], [ %indvars.iv.next, %13 ]
  %.069 = phi ptr [ %.067, %.lr.ph ], [ %.0, %13 ]
  %10 = load ptr, ptr %8, align 8
  %11 = getelementptr i32, ptr %10, i64 %indvars.iv
  %12 = load i32, ptr %11, align 4
  %.not = icmp ugt i32 %2, %12
  br i1 %.not, label %13, label %19

13:                                               ; preds = %9
  %indvars.iv.next = add nuw nsw i64 %indvars.iv, 1
  %14 = getelementptr inbounds nuw i8, ptr %.069, i64 8
  %.0 = load ptr, ptr %14, align 8
  %15 = load ptr, ptr %5, align 8
  %16 = tail call i32 @g_queue_get_length(ptr noundef %15)
  %17 = zext i32 %16 to i64
  %18 = icmp samesign ult i64 %indvars.iv.next, %17
  br i1 %18, label %9, label %.thread, !llvm.loop !11

19:                                               ; preds = %9
  %20 = load ptr, ptr %.069, align 8
  %.not58 = icmp eq ptr %20, null
  br i1 %.not58, label %.thread, label %26

.thread:                                          ; preds = %13, %4, %19
  %21 = getelementptr inbounds nuw i8, ptr %0, i64 40
  %22 = load i32, ptr %21, align 8
  %23 = icmp eq i32 %2, %22
  %24 = icmp eq i32 %3, 0
  %or.cond = and i1 %24, %23
  br i1 %or.cond, label %common.ret82, label %25

25:                                               ; preds = %.thread
  tail call void (ptr, ...) @proto_report_dissector_bug(ptr noundef nonnull @.str, ptr noundef nonnull @.str.1, i32 noundef 135, ptr noundef nonnull @.str.8) #7
  unreachable

26:                                               ; preds = %19
  %27 = getelementptr inbounds nuw i8, ptr %0, i64 64
  %28 = load ptr, ptr %27, align 8
  %29 = getelementptr i32, ptr %28, i64 %indvars.iv
  %30 = load i32, ptr %29, align 4
  %31 = sub i32 %2, %30
  %32 = tail call zeroext i1 @tvb_bytes_exist(ptr noundef nonnull %20, i32 noundef %31, i32 noundef %3)
  br i1 %32, label %33, label %40

33:                                               ; preds = %26
  %34 = getelementptr inbounds nuw i8, ptr %0, i64 32
  %35 = load ptr, ptr %34, align 8
  %.not62 = icmp eq ptr %35, null
  br i1 %.not62, label %37, label %36

36:                                               ; preds = %33
  tail call void (ptr, ...) @proto_report_dissector_bug(ptr noundef nonnull @.str, ptr noundef nonnull @.str.1, i32 noundef 142, ptr noundef nonnull @.str.10) #7
  unreachable

37:                                               ; preds = %33
  %38 = zext i32 %3 to i64
  %39 = tail call ptr @tvb_memcpy(ptr noundef nonnull %20, ptr noundef %1, i32 noundef %31, i64 noundef %38)
  br label %common.ret82

40:                                               ; preds = %26
  %41 = tail call i32 @tvb_captured_length_remaining(ptr noundef nonnull %20, i32 noundef %31)
  %.not59 = icmp eq i32 %41, 0
  br i1 %.not59, label %42, label %43

42:                                               ; preds = %40
  tail call void (ptr, ...) @proto_report_dissector_bug(ptr noundef nonnull @.str, ptr noundef nonnull @.str.1, i32 noundef 154, ptr noundef nonnull @.str.11) #7
  unreachable

43:                                               ; preds = %40
  %.not60 = icmp ugt i32 %41, %3
  br i1 %.not60, label %44, label %45

44:                                               ; preds = %43
  tail call void (ptr, ...) @proto_report_dissector_bug(ptr noundef nonnull @.str, ptr noundef nonnull @.str.1, i32 noundef 156, ptr noundef nonnull @.str.12) #7
  unreachable

45:                                               ; preds = %43
  %46 = zext i32 %41 to i64
  %47 = tail call ptr @tvb_memcpy(ptr noundef nonnull %20, ptr noundef %1, i32 noundef %31, i64 noundef %46)
  %48 = add i32 %41, %2
  %49 = sub nuw i32 %3, %41
  %.not61 = icmp eq i32 %3, %41
  br i1 %.not61, label %common.ret82, label %50

50:                                               ; preds = %45
  %51 = getelementptr inbounds nuw i8, ptr %0, i64 80
  %52 = load i32, ptr %51, align 8
  %53 = add i32 %52, 1
  store i32 %53, ptr %51, align 8
  %54 = icmp ult i32 %53, 500
  br i1 %54, label %56, label %55

55:                                               ; preds = %50
  tail call void (ptr, ...) @proto_report_dissector_bug(ptr noundef nonnull @.str, ptr noundef nonnull @.str.1, i32 noundef 165, ptr noundef nonnull @.str.13) #7
  unreachable

common.ret82:                                     ; preds = %45, %.thread, %37, %56
  %common.ret82.op = phi ptr [ %1, %56 ], [ %39, %37 ], [ %1, %.thread ], [ %1, %45 ]
  ret ptr %common.ret82.op

56:                                               ; preds = %50
  %57 = getelementptr i8, ptr %1, i64 %46
  %58 = tail call ptr @composite_memcpy(ptr noundef %0, ptr noundef %57, i32 noundef %48, i32 noundef %49)
  %59 = load i32, ptr %51, align 8
  %60 = add i32 %59, -1
  store i32 %60, ptr %51, align 8
  br label %common.ret82
}